target datalayout = "e-m:e-p270:32:32-p271:32:32-p272:64:64-i64:64-i128:128-f80:128-n8:16:32:64-S128"
target triple = "x86_64-pc-linux-gnu"

%"class.Assimp::MDCImporter" = type <{ %"class.Assimp::BaseImporter", i32, [4 x i8], ptr, ptr, i32, [4 x i8] }>
%"class.Assimp::BaseImporter" = type { ptr, double, double, %"class.std::__cxx11::basic_string", %"class.std::__exception_ptr::exception_ptr", ptr }
%"class.std::__cxx11::basic_string" = type { %"struct.std::__cxx11::basic_string<char>::_Alloc_hider", i64, %union.anon }
%"struct.std::__cxx11::basic_string<char>::_Alloc_hider" = type { ptr }
%union.anon = type { i64, [8 x i8] }
%"class.std::__exception_ptr::exception_ptr" = type { ptr }
%"struct.Assimp::MDC::Header" = type { i32, i32, [64 x i8], i32, i32, i32, i32, i32, i32, i32, i32, i32, i32 }

@.str = private unnamed_addr constant [5 x i8] c"CPDI\00", align 1
@.str.1 = private unnamed_addr constant [5 x i8] c"IDPC\00", align 1
@.str.2 = private unnamed_addr constant [46 x i8] c"Invalid MDC magic word: expected IDPC, found \00", align 1
@_ZTI17DeadlyImportError = linkonce_odr constant { ptr, ptr, ptr } { ptr getelementptr inbounds (ptr, ptr @_ZTVN10__cxxabiv120__si_class_type_infoE, i64 2), ptr @_ZTS17DeadlyImportError, ptr @_ZTI15DeadlyErrorBase }, comdat, align 8
@.str.3 = private unnamed_addr constant [63 x i8] c"Unsupported MDC file version (2 (AI_MDC_VERSION) was expected)\00", align 1
@.str.4 = private unnamed_addr constant [96 x i8] c"Some of the offset values in the MDC header are invalid and point to something behind the file.\00", align 1
@.str.5 = private unnamed_addr constant [37 x i8] c"The requested frame is not available\00", align 1

; Function Attrs: mustprogress nounwind uwtable
define linkonce_odr void @_ZNSt15__new_allocatorIcE10deallocateEPcm(ptr noundef nonnull align 1 dereferenceable(1) %0, ptr noundef %1, i64 noundef %2) #0 comdat align 2 {
  %4 = alloca ptr, align 8
  %5 = alloca ptr, align 8
  %6 = alloca i64, align 8
  store ptr %0, ptr %4, align 8
  store ptr %1, ptr %5, align 8
  store i64 %2, ptr %6, align 8
  %7 = load ptr, ptr %5, align 8
  %8 = load i64, ptr %6, align 8
  %9 = mul i64 %8, 1
  call void @_ZdlPvm(ptr noundef %7, i64 noundef %9) #22
  ret void
}

; Function Attrs: mustprogress nounwind uwtable
define linkonce_odr noundef ptr @_ZNSt19__ptr_traits_ptr_toIPKcS0_Lb0EE10pointer_toERS0_(ptr noundef nonnull align 1 dereferenceable(1) %0) #0 comdat align 2 {
  %2 = alloca ptr, align 8
  store ptr %0, ptr %2, align 8
  %3 = load ptr, ptr %2, align 8
  ret ptr %3
}

; Function Attrs: mustprogress uwtable
define linkonce_odr void @_ZNSt16allocator_traitsISaIcEE10deallocateERS0_Pcm(ptr noundef nonnull align 1 dereferenceable(1) %0, ptr noundef %1, i64 noundef %2) #4 comdat align 2 {
  %4 = alloca ptr, align 8
  %5 = alloca ptr, align 8
  %6 = alloca i64, align 8
  store ptr %0, ptr %4, align 8
  store ptr %1, ptr %5, align 8
  store i64 %2, ptr %6, align 8
  %7 = load ptr, ptr %4, align 8
  %8 = load ptr, ptr %5, align 8
  %9 = load i64, ptr %6, align 8
  call void @_ZNSt15__new_allocatorIcE10deallocateEPcm(ptr noundef nonnull align 1 dereferenceable(1) %7, ptr noundef %8, i64 noundef %9)
  ret void
}

; Function Attrs: mustprogress nounwind uwtable
define available_externally noundef nonnull align 1 dereferenceable(1) ptr @_ZNSt7__cxx1112basic_stringIcSt11char_traitsIcESaIcEE16_M_get_allocatorEv(ptr noundef nonnull align 8 dereferenceable(32) %0) #0 align 2 {
  %2 = alloca ptr, align 8
  store ptr %0, ptr %2, align 8
  %3 = load ptr, ptr %2, align 8
  %4 = getelementptr inbounds nuw %"class.std::__cxx11::basic_string", ptr %3, i32 0, i32 0
  ret ptr %4
}

; Function Attrs: mustprogress nounwind uwtable
define available_externally noundef ptr @_ZNKSt7__cxx1112basic_stringIcSt11char_traitsIcESaIcEE13_M_local_dataEv(ptr noundef nonnull align 8 dereferenceable(32) %0) #0 align 2 {
  %2 = alloca ptr, align 8
  store ptr %0, ptr %2, align 8
  %3 = load ptr, ptr %2, align 8
  %4 = getelementptr inbounds nuw %"class.std::__cxx11::basic_string", ptr %3, i32 0, i32 2
  %5 = getelementptr inbounds [16 x i8], ptr %4, i64 0, i64 0
  %6 = call noundef ptr @_ZNSt19__ptr_traits_ptr_toIPKcS0_Lb0EE10pointer_toERS0_(ptr noundef nonnull align 1 dereferenceable(1) %5) #17
  ret ptr %6
}

; Function Attrs: mustprogress nounwind uwtable
define available_externally noundef ptr @_ZNKSt7__cxx1112basic_stringIcSt11char_traitsIcESaIcEE7_M_dataEv(ptr noundef nonnull align 8 dereferenceable(32) %0) #0 align 2 {
  %2 = alloca ptr, align 8
  store ptr %0, ptr %2, align 8
  %3 = load ptr, ptr %2, align 8
  %4 = getelementptr inbounds nuw %"class.std::__cxx11::basic_string", ptr %3, i32 0, i32 0
  %5 = getelementptr inbounds nuw %"struct.std::__cxx11::basic_string<char>::_Alloc_hider", ptr %4, i32 0, i32 0
  %6 = load ptr, ptr %5, align 8
  ret ptr %6
}

; Function Attrs: mustprogress nounwind uwtable
define available_externally void @_ZNSt7__cxx1112basic_stringIcSt11char_traitsIcESaIcEE10_M_destroyEm(ptr noundef nonnull align 8 dereferenceable(32) %0, i64 noundef %1) #0 align 2 personality ptr @__gxx_personality_v0 {
  %3 = alloca ptr, align 8
  %4 = alloca i64, align 8
  store ptr %0, ptr %3, align 8
  store i64 %1, ptr %4, align 8
  %5 = load ptr, ptr %3, align 8
  %6 = invoke noundef nonnull align 1 dereferenceable(1) ptr @_ZNSt7__cxx1112basic_stringIcSt11char_traitsIcESaIcEE16_M_get_allocatorEv(ptr noundef nonnull align 8 dereferenceable(32) %5)
          to label %7 unwind label %13

7:                                                ; preds = %2
  %8 = invoke noundef ptr @_ZNKSt7__cxx1112basic_stringIcSt11char_traitsIcESaIcEE7_M_dataEv(ptr noundef nonnull align 8 dereferenceable(32) %5)
          to label %9 unwind label %13

9:                                                ; preds = %7
  %10 = load i64, ptr %4, align 8
  %11 = add i64 %10, 1
  invoke void @_ZNSt16allocator_traitsISaIcEE10deallocateERS0_Pcm(ptr noundef nonnull align 1 dereferenceable(1) %6, ptr noundef %8, i64 noundef %11)
          to label %12 unwind label %13

12:                                               ; preds = %9
  ret void

13:                                               ; preds = %9, %7, %2
  %14 = landingpad { ptr, i32 }
          catch ptr null
  %15 = extractvalue { ptr, i32 } %14, 0
  call void @__clang_call_terminate(ptr %15) #19
  unreachable
}

; Function Attrs: mustprogress uwtable
define available_externally noundef zeroext i1 @_ZNKSt7__cxx1112basic_stringIcSt11char_traitsIcESaIcEE11_M_is_localEv(ptr noundef nonnull align 8 dereferenceable(32) %0) #4 align 2 {
  %2 = alloca i1, align 1
  %3 = alloca ptr, align 8
  store ptr %0, ptr %3, align 8
  %4 = load ptr, ptr %3, align 8
  %5 = call noundef ptr @_ZNKSt7__cxx1112basic_stringIcSt11char_traitsIcESaIcEE7_M_dataEv(ptr noundef nonnull align 8 dereferenceable(32) %4)
  %6 = call noundef ptr @_ZNKSt7__cxx1112basic_stringIcSt11char_traitsIcESaIcEE13_M_local_dataEv(ptr noundef nonnull align 8 dereferenceable(32) %4)
  %7 = icmp eq ptr %5, %6
  br i1 %7, label %8, label %14

8:                                                ; preds = %1
  %9 = getelementptr inbounds nuw %"class.std::__cxx11::basic_string", ptr %4, i32 0, i32 1
  %10 = load i64, ptr %9, align 8
  %11 = icmp ugt i64 %10, 15
  br i1 %11, label %12, label %13

12:                                               ; preds = %8
  unreachable

13:                                               ; preds = %8
  store i1 true, ptr %2, align 1
  br label %15

14:                                               ; preds = %1
  store i1 false, ptr %2, align 1
  br label %15

15:                                               ; preds = %14, %13
  %16 = load i1, ptr %2, align 1
  ret i1 %16
}

; Function Attrs: noinline noreturn nounwind uwtable
define linkonce_odr hidden void @__clang_call_terminate(ptr noundef %0) #13 comdat {
  %2 = call ptr @__cxa_begin_catch(ptr %0) #17
  call void @_ZSt9terminatev() #19
  unreachable
}

; Function Attrs: mustprogress nounwind uwtable
define linkonce_odr void @_ZNSt15__new_allocatorIcED2Ev(ptr noundef nonnull align 1 dereferenceable(1) %0) unnamed_addr #0 comdat align 2 {
  %2 = alloca ptr, align 8
  store ptr %0, ptr %2, align 8
  ret void
}

; Function Attrs: mustprogress uwtable
define available_externally void @_ZNSt7__cxx1112basic_stringIcSt11char_traitsIcESaIcEE10_M_disposeEv(ptr noundef nonnull align 8 dereferenceable(32) %0) #4 align 2 {
  %2 = alloca ptr, align 8
  store ptr %0, ptr %2, align 8
  %3 = load ptr, ptr %2, align 8
  %4 = call noundef zeroext i1 @_ZNKSt7__cxx1112basic_stringIcSt11char_traitsIcESaIcEE11_M_is_localEv(ptr noundef nonnull align 8 dereferenceable(32) %3)
  br i1 %4, label %8, label %5

5:                                                ; preds = %1
  %6 = getelementptr inbounds nuw %"class.std::__cxx11::basic_string", ptr %3, i32 0, i32 2
  %7 = load i64, ptr %6, align 8
  call void @_ZNSt7__cxx1112basic_stringIcSt11char_traitsIcESaIcEE10_M_destroyEm(ptr noundef nonnull align 8 dereferenceable(32) %3, i64 noundef %7) #17
  br label %8

8:                                                ; preds = %5, %1
  ret void
}

; Function Attrs: mustprogress nounwind uwtable
define available_externally void @_ZNSt7__cxx1112basic_stringIcSt11char_traitsIcESaIcEED2Ev(ptr noundef nonnull align 8 dereferenceable(32) %0) unnamed_addr #0 align 2 personality ptr @__gxx_personality_v0 {
  %2 = alloca ptr, align 8
  store ptr %0, ptr %2, align 8
  %3 = load ptr, ptr %2, align 8
  invoke void @_ZNSt7__cxx1112basic_stringIcSt11char_traitsIcESaIcEE10_M_disposeEv(ptr noundef nonnull align 8 dereferenceable(32) %3)
          to label %4 unwind label %6

4:                                                ; preds = %1
  %5 = getelementptr inbounds nuw %"class.std::__cxx11::basic_string", ptr %3, i32 0, i32 0
  call void @_ZNSt15__new_allocatorIcED2Ev(ptr noundef nonnull align 8 dereferenceable(8) %5) #17
  ret void

6:                                                ; preds = %1
  %7 = landingpad { ptr, i32 }
          catch ptr null
  %8 = extractvalue { ptr, i32 } %7, 0
  call void @__clang_call_terminate(ptr %8) #19
  unreachable
}

; Function Attrs: mustprogress uwtable
define hidden void @_ZN6Assimp11MDCImporter14ValidateHeaderEv(ptr noundef nonnull align 8 dereferenceable(100) %0) #4 align 2 personality ptr @__gxx_personality_v0 {
  %2 = alloca ptr, align 8
  %3 = alloca %"class.std::__cxx11::basic_string", align 8
  %4 = alloca ptr, align 8
  %5 = alloca i32, align 4
  %6 = alloca i1, align 1
  store ptr %0, ptr %2, align 8
  %7 = load ptr, ptr %2, align 8
  %8 = getelementptr inbounds nuw %"class.Assimp::MDCImporter", ptr %7, i32 0, i32 3
  %9 = load ptr, ptr %8, align 8
  %10 = getelementptr inbounds nuw %"struct.Assimp::MDC::Header", ptr %9, i32 0, i32 0
  %11 = load i32, ptr %10, align 1
  %12 = load i8, ptr @.str, align 1
  %13 = sext i8 %12 to i32
  %14 = shl i32 %13, 24
  %15 = load i8, ptr getelementptr inbounds ([5 x i8], ptr @.str, i64 0, i64 1), align 1
  %16 = sext i8 %15 to i32
  %17 = shl i32 %16, 16
  %18 = add nsw i32 %14, %17
  %19 = load i8, ptr getelementptr inbounds ([5 x i8], ptr @.str, i64 0, i64 2), align 1
  %20 = sext i8 %19 to i32
  %21 = shl i32 %20, 8
  %22 = add nsw i32 %18, %21
  %23 = load i8, ptr getelementptr inbounds ([5 x i8], ptr @.str, i64 0, i64 3), align 1
  %24 = sext i8 %23 to i32
  %25 = add nsw i32 %22, %24
  %26 = icmp ne i32 %11, %25
  br i1 %26, label %27, label %66

27:                                               ; preds = %1
  %28 = getelementptr inbounds nuw %"class.Assimp::MDCImporter", ptr %7, i32 0, i32 3
  %29 = load ptr, ptr %28, align 8
  %30 = getelementptr inbounds nuw %"struct.Assimp::MDC::Header", ptr %29, i32 0, i32 0
  %31 = load i32, ptr %30, align 1
  %32 = load i8, ptr @.str.1, align 1
  %33 = sext i8 %32 to i32
  %34 = shl i32 %33, 24
  %35 = load i8, ptr getelementptr inbounds ([5 x i8], ptr @.str.1, i64 0, i64 1), align 1
  %36 = sext i8 %35 to i32
  %37 = shl i32 %36, 16
  %38 = add nsw i32 %34, %37
  %39 = load i8, ptr getelementptr inbounds ([5 x i8], ptr @.str.1, i64 0, i64 2), align 1
  %40 = sext i8 %39 to i32
  %41 = shl i32 %40, 8
  %42 = add nsw i32 %38, %41
  %43 = load i8, ptr getelementptr inbounds ([5 x i8], ptr @.str.1, i64 0, i64 3), align 1
  %44 = sext i8 %43 to i32
  %45 = add nsw i32 %42, %44
  %46 = icmp ne i32 %31, %45
  br i1 %46, label %47, label %66

47:                                               ; preds = %27
  store i1 true, ptr %6, align 1
  %48 = call ptr @__cxa_allocate_exception(i64 16) #17
  call void @llvm.lifetime.start.p0(i64 32, ptr %3) #17
  %49 = getelementptr inbounds nuw %"class.Assimp::MDCImporter", ptr %7, i32 0, i32 3
  %50 = load ptr, ptr %49, align 8
  %51 = getelementptr inbounds nuw %"struct.Assimp::MDC::Header", ptr %50, i32 0, i32 0
  invoke void @_Z18ai_str_toprintableB5cxx11PKcic(ptr dead_on_unwind writable sret(%"class.std::__cxx11::basic_string") align 8 %3, ptr noundef %51, i32 noundef 4, i8 noundef signext 63)
          to label %52 unwind label %54

52:                                               ; preds = %47
  invoke void @_ZN17DeadlyImportErrorC2IJRA46_KcNSt7__cxx1112basic_stringIcSt11char_traitsIcESaIcEEEEEEDpOT_(ptr noundef nonnull align 8 dereferenceable(16) %48, ptr noundef nonnull align 1 dereferenceable(46) @.str.2, ptr noundef nonnull align 8 dereferenceable(32) %3)
          to label %53 unwind label %58

53:                                               ; preds = %52
  store i1 false, ptr %6, align 1
  invoke void @__cxa_throw(ptr %48, ptr @_ZTI17DeadlyImportError, ptr @_ZNSt13runtime_errorD2Ev) #18
          to label %136 unwind label %58

54:                                               ; preds = %47
  %55 = landingpad { ptr, i32 }
          cleanup
  %56 = extractvalue { ptr, i32 } %55, 0
  store ptr %56, ptr %4, align 8
  %57 = extractvalue { ptr, i32 } %55, 1
  store i32 %57, ptr %5, align 4
  br label %62

58:                                               ; preds = %53, %52
  %59 = landingpad { ptr, i32 }
          cleanup
  %60 = extractvalue { ptr, i32 } %59, 0
  store ptr %60, ptr %4, align 8
  %61 = extractvalue { ptr, i32 } %59, 1
  store i32 %61, ptr %5, align 4
  call void @_ZNSt7__cxx1112basic_stringIcSt11char_traitsIcESaIcEED2Ev(ptr noundef nonnull align 8 dereferenceable(32) %3) #17
  br label %62

62:                                               ; preds = %58, %54
  call void @llvm.lifetime.end.p0(i64 32, ptr %3) #17
  %63 = load i1, ptr %6, align 1
  br i1 %63, label %64, label %65

64:                                               ; preds = %62
  call void @__cxa_free_exception(ptr %48) #17
  br label %65

65:                                               ; preds = %64, %62
  br label %131

66:                                               ; preds = %27, %1
  %67 = getelementptr inbounds nuw %"class.Assimp::MDCImporter", ptr %7, i32 0, i32 3
  %68 = load ptr, ptr %67, align 8
  %69 = getelementptr inbounds nuw %"struct.Assimp::MDC::Header", ptr %68, i32 0, i32 1
  %70 = load i32, ptr %69, align 1
  %71 = icmp ne i32 %70, 2
  br i1 %71, label %72, label %74

72:                                               ; preds = %66
  %73 = call noundef ptr @_ZN6Assimp13DefaultLogger3getEv()
  call void @_ZN6Assimp6Logger4warnEPKc(ptr noundef nonnull align 8 dereferenceable(12) %73, ptr noundef @.str.3)
  br label %74

74:                                               ; preds = %72, %66
  %75 = getelementptr inbounds nuw %"class.Assimp::MDCImporter", ptr %7, i32 0, i32 3
  %76 = load ptr, ptr %75, align 8
  %77 = getelementptr inbounds nuw %"struct.Assimp::MDC::Header", ptr %76, i32 0, i32 8
  %78 = load i32, ptr %77, align 1
  %79 = zext i32 %78 to i64
  %80 = getelementptr inbounds nuw %"class.Assimp::MDCImporter", ptr %7, i32 0, i32 3
  %81 = load ptr, ptr %80, align 8
  %82 = getelementptr inbounds nuw %"struct.Assimp::MDC::Header", ptr %81, i32 0, i32 4
  %83 = load i32, ptr %82, align 1
  %84 = zext i32 %83 to i64
  %85 = mul i64 %84, 56
  %86 = add i64 %79, %85
  %87 = getelementptr inbounds nuw %"class.Assimp::MDCImporter", ptr %7, i32 0, i32 5
  %88 = load i32, ptr %87, align 8
  %89 = zext i32 %88 to i64
  %90 = icmp ugt i64 %86, %89
  br i1 %90, label %108, label %91

91:                                               ; preds = %74
  %92 = getelementptr inbounds nuw %"class.Assimp::MDCImporter", ptr %7, i32 0, i32 3
  %93 = load ptr, ptr %92, align 8
  %94 = getelementptr inbounds nuw %"struct.Assimp::MDC::Header", ptr %93, i32 0, i32 11
  %95 = load i32, ptr %94, align 1
  %96 = zext i32 %95 to i64
  %97 = getelementptr inbounds nuw %"class.Assimp::MDCImporter", ptr %7, i32 0, i32 3
  %98 = load ptr, ptr %97, align 8
  %99 = getelementptr inbounds nuw %"struct.Assimp::MDC::Header", ptr %98, i32 0, i32 6
  %100 = load i32, ptr %99, align 1
  %101 = zext i32 %100 to i64
  %102 = mul i64 %101, 124
  %103 = add i64 %96, %102
  %104 = getelementptr inbounds nuw %"class.Assimp::MDCImporter", ptr %7, i32 0, i32 5
  %105 = load i32, ptr %104, align 8
  %106 = zext i32 %105 to i64
  %107 = icmp ugt i64 %103, %106
  br i1 %107, label %108, label %115

108:                                              ; preds = %91, %74
  %109 = call ptr @__cxa_allocate_exception(i64 16) #17
  invoke void @_ZN17DeadlyImportErrorC2EPKc(ptr noundef nonnull align 8 dereferenceable(16) %109, ptr noundef @.str.4)
          to label %110 unwind label %111

110:                                              ; preds = %108
  call void @__cxa_throw(ptr %109, ptr @_ZTI17DeadlyImportError, ptr @_ZNSt13runtime_errorD2Ev) #18
  unreachable

111:                                              ; preds = %108
  %112 = landingpad { ptr, i32 }
          cleanup
  %113 = extractvalue { ptr, i32 } %112, 0
  store ptr %113, ptr %4, align 8
  %114 = extractvalue { ptr, i32 } %112, 1
  store i32 %114, ptr %5, align 4
  call void @__cxa_free_exception(ptr %109) #17
  br label %131

115:                                              ; preds = %91
  %116 = getelementptr inbounds nuw %"class.Assimp::MDCImporter", ptr %7, i32 0, i32 1
  %117 = load i32, ptr %116, align 8
  %118 = getelementptr inbounds nuw %"class.Assimp::MDCImporter", ptr %7, i32 0, i32 3
  %119 = load ptr, ptr %118, align 8
  %120 = getelementptr inbounds nuw %"struct.Assimp::MDC::Header", ptr %119, i32 0, i32 4
  %121 = load i32, ptr %120, align 1
  %122 = icmp uge i32 %117, %121
  br i1 %122, label %123, label %130

123:                                              ; preds = %115
  %124 = call ptr @__cxa_allocate_exception(i64 16) #17
  invoke void @_ZN17DeadlyImportErrorC2EPKc(ptr noundef nonnull align 8 dereferenceable(16) %124, ptr noundef @.str.5)
          to label %125 unwind label %126

125:                                              ; preds = %123
  call void @__cxa_throw(ptr %124, ptr @_ZTI17DeadlyImportError, ptr @_ZNSt13runtime_errorD2Ev) #18
  unreachable

126:                                              ; preds = %123
  %127 = landingpad { ptr, i32 }
          cleanup
  %128 = extractvalue { ptr, i32 } %127, 0
  store ptr %128, ptr %4, align 8
  %129 = extractvalue { ptr, i32 } %127, 1
  store i32 %129, ptr %5, align 4
  call void @__cxa_free_exception(ptr %124) #17
  br label %131

130:                                              ; preds = %115
  ret void

131:                                              ; preds = %126, %111, %65
  %132 = load ptr, ptr %4, align 8
  %133 = load i32, ptr %5, align 4
  %134 = insertvalue { ptr, i32 } poison, ptr %132, 0
  %135 = insertvalue { ptr, i32 } %134, i32 %133, 1
  resume { ptr, i32 } %135

136:                                              ; preds = %53
  unreachable
}