; Function Attrs: mustprogress uwtable
define hidden void @_ZN6Assimp11MDCImporter14ValidateHeaderEv(ptr noundef nonnull readonly align 8 captures(none) dereferenceable(100) %0) local_unnamed_addr #5 align 2 personality ptr @__gxx_personality_v0 {
  %2 = alloca %"class.std::__cxx11::basic_string", align 8
  %3 = getelementptr inbounds nuw i8, ptr %0, i64 80
  %4 = load ptr, ptr %3, align 8
  %5 = load i32, ptr %4, align 1
  switch i32 %5, label %6 [
    i32 1129333833, label %23
    i32 1229213763, label %23
  ]

6:                                                ; preds = %1
  %7 = tail call ptr @__cxa_allocate_exception(i64 16) #24
  call void @llvm.lifetime.start.p0(i64 32, ptr nonnull %2) #24
  %8 = load ptr, ptr %3, align 8
  invoke void @_Z18ai_str_toprintableB5cxx11PKcic(ptr dead_on_unwind nonnull writable sret(%"class.std::__cxx11::basic_string") align 8 %2, ptr noundef %8, i32 noundef 4, i8 noundef signext 63)
          to label %9 unwind label %_ZNSt7__cxx1112basic_stringIcSt11char_traitsIcESaIcEED2Ev.exit.thread

9:                                                ; preds = %6
  invoke void @_ZN17DeadlyImportErrorC2IJRA46_KcNSt7__cxx1112basic_stringIcSt11char_traitsIcESaIcEEEEEEDpOT_(ptr noundef nonnull align 8 dereferenceable(16) %7, ptr noundef nonnull align 1 dereferenceable(46) @.str.2, ptr noundef nonnull align 8 dereferenceable(32) %2)
          to label %10 unwind label %12

10:                                               ; preds = %9
  invoke void @__cxa_throw(ptr nonnull %7, ptr nonnull @_ZTI17DeadlyImportError, ptr nonnull @_ZNSt13runtime_errorD2Ev) #25
          to label %67 unwind label %12

_ZNSt7__cxx1112basic_stringIcSt11char_traitsIcESaIcEED2Ev.exit.thread: ; preds = %6
  %11 = landingpad { ptr, i32 }
          cleanup
  call void @llvm.lifetime.end.p0(i64 32, ptr nonnull %2) #24
  br label %22

12:                                               ; preds = %10, %9
  %.0 = phi i1 [ false, %10 ], [ true, %9 ]
  %13 = landingpad { ptr, i32 }
          cleanup
  %14 = load ptr, ptr %2, align 8
  %15 = getelementptr inbounds nuw i8, ptr %2, i64 16
  %16 = icmp eq ptr %14, %15
  br i1 %16, label %_ZNKSt7__cxx1112basic_stringIcSt11char_traitsIcESaIcEE11_M_is_localEv.exit.thread.i.i, label %_ZNSt7__cxx1112basic_stringIcSt11char_traitsIcESaIcEED2Ev.exit

_ZNKSt7__cxx1112basic_stringIcSt11char_traitsIcESaIcEE11_M_is_localEv.exit.thread.i.i: ; preds = %12
  %17 = getelementptr inbounds nuw i8, ptr %2, i64 8
  %18 = load i64, ptr %17, align 8
  %19 = icmp ult i64 %18, 16
  call void @llvm.assume(i1 %19)
  call void @llvm.lifetime.end.p0(i64 32, ptr nonnull %2) #24
  br i1 %.0, label %22, label %66

_ZNSt7__cxx1112basic_stringIcSt11char_traitsIcESaIcEED2Ev.exit: ; preds = %12
  %20 = load i64, ptr %15, align 8
  %21 = add i64 %20, 1
  call void @_ZdlPvm(ptr noundef %14, i64 noundef %21) #26
  call void @llvm.lifetime.end.p0(i64 32, ptr nonnull %2) #24
  br i1 %.0, label %22, label %66

22:                                               ; preds = %_ZNKSt7__cxx1112basic_stringIcSt11char_traitsIcESaIcEE11_M_is_localEv.exit.thread.i.i, %_ZNSt7__cxx1112basic_stringIcSt11char_traitsIcESaIcEED2Ev.exit.thread, %_ZNSt7__cxx1112basic_stringIcSt11char_traitsIcESaIcEED2Ev.exit
  %.pn16 = phi { ptr, i32 } [ %11, %_ZNSt7__cxx1112basic_stringIcSt11char_traitsIcESaIcEED2Ev.exit.thread ], [ %13, %_ZNSt7__cxx1112basic_stringIcSt11char_traitsIcESaIcEED2Ev.exit ], [ %13, %_ZNKSt7__cxx1112basic_stringIcSt11char_traitsIcESaIcEE11_M_is_localEv.exit.thread.i.i ]
  call void @__cxa_free_exception(ptr %7) #24
  br label %66

23:                                               ; preds = %1, %1
  %24 = getelementptr inbounds nuw i8, ptr %4, i64 4
  %25 = load i32, ptr %24, align 1
  %.not10 = icmp eq i32 %25, 2
  br i1 %.not10, label %28, label %26

26:                                               ; preds = %23
  %27 = tail call noundef ptr @_ZN6Assimp13DefaultLogger3getEv()
  tail call void @_ZN6Assimp6Logger4warnEPKc(ptr noundef nonnull align 8 dereferenceable(12) %27, ptr noundef nonnull @.str.3)
  %.pre = load ptr, ptr %3, align 8
  br label %28

28:                                               ; preds = %26, %23
  %29 = phi ptr [ %.pre, %26 ], [ %4, %23 ]
  %30 = getelementptr inbounds nuw i8, ptr %29, i64 92
  %31 = load i32, ptr %30, align 1
  %32 = zext i32 %31 to i64
  %33 = getelementptr inbounds nuw i8, ptr %29, i64 76
  %34 = load i32, ptr %33, align 1
  %35 = zext i32 %34 to i64
  %36 = mul nuw nsw i64 %35, 56
  %37 = add nuw nsw i64 %36, %32
  %38 = getelementptr inbounds nuw i8, ptr %0, i64 96
  %39 = load i32, ptr %38, align 8
  %40 = zext i32 %39 to i64
  %41 = icmp samesign ugt i64 %37, %40
  br i1 %41, label %52, label %42

42:                                               ; preds = %28
  %43 = getelementptr inbounds nuw i8, ptr %29, i64 104
  %44 = load i32, ptr %43, align 1
  %45 = zext i32 %44 to i64
  %46 = getelementptr inbounds nuw i8, ptr %29, i64 84
  %47 = load i32, ptr %46, align 1
  %48 = zext i32 %47 to i64
  %49 = mul nuw nsw i64 %48, 124
  %50 = add nuw nsw i64 %49, %45
  %51 = icmp samesign ugt i64 %50, %40
  br i1 %51, label %52, label %57

52:                                               ; preds = %42, %28
  %53 = tail call ptr @__cxa_allocate_exception(i64 16) #24
  invoke void @_ZN17DeadlyImportErrorC2EPKc(ptr noundef nonnull align 8 dereferenceable(16) %53, ptr noundef nonnull @.str.4)
          to label %54 unwind label %55

54:                                               ; preds = %52
  tail call void @__cxa_throw(ptr nonnull %53, ptr nonnull @_ZTI17DeadlyImportError, ptr nonnull @_ZNSt13runtime_errorD2Ev) #25
  unreachable

55:                                               ; preds = %52
  %56 = landingpad { ptr, i32 }
          cleanup
  tail call void @__cxa_free_exception(ptr nonnull %53) #24
  br label %66

57:                                               ; preds = %42
  %58 = getelementptr inbounds nuw i8, ptr %0, i64 72
  %59 = load i32, ptr %58, align 8
  %.not11 = icmp ult i32 %59, %34
  br i1 %.not11, label %65, label %60

60:                                               ; preds = %57
  %61 = tail call ptr @__cxa_allocate_exception(i64 16) #24
  invoke void @_ZN17DeadlyImportErrorC2EPKc(ptr noundef nonnull align 8 dereferenceable(16) %61, ptr noundef nonnull @.str.5)
          to label %62 unwind label %63

62:                                               ; preds = %60
  tail call void @__cxa_throw(ptr nonnull %61, ptr nonnull @_ZTI17DeadlyImportError, ptr nonnull @_ZNSt13runtime_errorD2Ev) #25
  unreachable

63:                                               ; preds = %60
  %64 = landingpad { ptr, i32 }
          cleanup
  tail call void @__cxa_free_exception(ptr nonnull %61) #24
  br label %66

65:                                               ; preds = %57
  ret void

66:                                               ; preds = %_ZNKSt7__cxx1112basic_stringIcSt11char_traitsIcESaIcEE11_M_is_localEv.exit.thread.i.i, %_ZNSt7__cxx1112basic_stringIcSt11char_traitsIcESaIcEED2Ev.exit, %22, %63, %55
  %.pn.pn = phi { ptr, i32 } [ %.pn16, %22 ], [ %13, %_ZNSt7__cxx1112basic_stringIcSt11char_traitsIcESaIcEED2Ev.exit ], [ %56, %55 ], [ %64, %63 ], [ %13, %_ZNKSt7__cxx1112basic_stringIcSt11char_traitsIcESaIcEE11_M_is_localEv.exit.thread.i.i ]
  resume { ptr, i32 } %.pn.pn

67:                                               ; preds = %10
  unreachable
}